; Function Attrs: nounwind uwtable
define void @Abc_NodeComplement(ptr noundef captures(none) %0) local_unnamed_addr #0 {
  %2 = load ptr, ptr %0, align 8, !tbaa !24
  %3 = getelementptr i8, ptr %2, i64 4
  %.val10 = load i32, ptr %3, align 4, !tbaa !51
  switch i32 %.val10, label %19 [
    i32 1, label %4
    i32 3, label %7
    i32 2, label %13
  ]

4:                                                ; preds = %1
  %5 = getelementptr inbounds nuw i8, ptr %0, i64 56
  %6 = load ptr, ptr %5, align 8, !tbaa !43
  tail call void @Abc_SopComplement(ptr noundef %6) #10
  br label %19

7:                                                ; preds = %1
  %8 = getelementptr inbounds nuw i8, ptr %0, i64 56
  %9 = load ptr, ptr %8, align 8, !tbaa !43
  %10 = ptrtoint ptr %9 to i64
  %11 = xor i64 %10, 1
  %12 = inttoptr i64 %11 to ptr
  store ptr %12, ptr %8, align 8, !tbaa !43
  br label %19

13:                                               ; preds = %1
  %14 = getelementptr inbounds nuw i8, ptr %0, i64 56
  %15 = load ptr, ptr %14, align 8, !tbaa !43
  %16 = ptrtoint ptr %15 to i64
  %17 = xor i64 %16, 1
  %18 = inttoptr i64 %17 to ptr
  store ptr %18, ptr %14, align 8, !tbaa !43
  br label %19

19:                                               ; preds = %1, %7, %13, %4
  ret void
}